; Function Attrs: mustprogress nounwind uwtable
define internal fastcc void @_ZN12_GLOBAL__N_123MicrosoftCXXNameMangler10mangleTypeEPKN5clang19LValueReferenceTypeENS1_10QualifiersENS1_11SourceRangeE(ptr noundef nonnull align 8 dereferenceable(593) %0, ptr nocapture noundef readonly %1, i64 %2, i64 %3) unnamed_addr #0 align 2 {
  %5 = getelementptr inbounds nuw i8, ptr %1, i64 16
  %6 = load i24, ptr %5, align 16
  %7 = and i24 %6, 1048576
  %.not4.i = icmp eq i24 %7, 0
  br i1 %.not4.i, label %_ZNK5clang13ReferenceType14getPointeeTypeEv.exit, label %.lr.ph.i

.lr.ph.i:                                         ; preds = %4, %_ZNK5clang4Type6castAsINS_13ReferenceTypeEEEPKT_v.exit.i
  %.05.i = phi ptr [ %.0.i.i, %_ZNK5clang4Type6castAsINS_13ReferenceTypeEEEPKT_v.exit.i ], [ %1, %4 ]
  %8 = getelementptr inbounds nuw i8, ptr %.05.i, i64 32
  %.0.copyload.i.i.i.i.i.i = load i64, ptr %8, align 8
  %9 = and i64 %.0.copyload.i.i.i.i.i.i, -16
  %10 = inttoptr i64 %9 to ptr
  %11 = load ptr, ptr %10, align 16
  %12 = getelementptr inbounds nuw i8, ptr %11, i64 16
  %13 = load i8, ptr %12, align 16
  %14 = and i8 %13, -2
  %spec.select.i.i.i.i.i.i.i.i.not.i.i = icmp eq i8 %14, 42
  br i1 %spec.select.i.i.i.i.i.i.i.i.not.i.i, label %_ZNK5clang4Type6castAsINS_13ReferenceTypeEEEPKT_v.exit.i, label %15

15:                                               ; preds = %.lr.ph.i
  %16 = tail call noundef ptr @_ZNK5clang4Type27getUnqualifiedDesugaredTypeEv(ptr noundef nonnull align 16 dereferenceable(24) %11) #21
  br label %_ZNK5clang4Type6castAsINS_13ReferenceTypeEEEPKT_v.exit.i

_ZNK5clang4Type6castAsINS_13ReferenceTypeEEEPKT_v.exit.i: ; preds = %15, %.lr.ph.i
  %.0.i.i = phi ptr [ %16, %15 ], [ %11, %.lr.ph.i ]
  %17 = getelementptr inbounds nuw i8, ptr %.0.i.i, i64 16
  %18 = load i24, ptr %17, align 16
  %19 = and i24 %18, 1048576
  %.not.i = icmp eq i24 %19, 0
  br i1 %.not.i, label %_ZNK5clang13ReferenceType14getPointeeTypeEv.exit, label %.lr.ph.i, !llvm.loop !100

_ZNK5clang13ReferenceType14getPointeeTypeEv.exit: ; preds = %_ZNK5clang4Type6castAsINS_13ReferenceTypeEEEPKT_v.exit.i, %4
  %.0.lcssa.i = phi ptr [ %1, %4 ], [ %.0.i.i, %_ZNK5clang4Type6castAsINS_13ReferenceTypeEEEPKT_v.exit.i ]
  %20 = getelementptr inbounds nuw i8, ptr %.0.lcssa.i, i64 32
  %.sroa.0.0.copyload.i = load i64, ptr %20, align 16
  %21 = getelementptr inbounds nuw i8, ptr %0, i64 8
  %22 = load ptr, ptr %21, align 8
  %23 = getelementptr inbounds nuw i8, ptr %22, i64 32
  %24 = load ptr, ptr %23, align 8
  %25 = getelementptr inbounds nuw i8, ptr %22, i64 24
  %26 = load ptr, ptr %25, align 8
  %.not.i9 = icmp ult ptr %24, %26
  br i1 %.not.i9, label %29, label %27

27:                                               ; preds = %_ZNK5clang13ReferenceType14getPointeeTypeEv.exit
  %28 = tail call noundef nonnull align 8 dereferenceable(48) ptr @_ZN4llvm11raw_ostream5writeEh(ptr noundef nonnull align 8 dereferenceable(48) %22, i8 noundef zeroext 65) #21
  br label %_ZN4llvm11raw_ostreamlsEc.exit

29:                                               ; preds = %_ZNK5clang13ReferenceType14getPointeeTypeEv.exit
  %30 = getelementptr inbounds i8, ptr %24, i64 1
  store ptr %30, ptr %23, align 8
  store i8 65, ptr %24, align 1
  br label %_ZN4llvm11raw_ostreamlsEc.exit

_ZN4llvm11raw_ostreamlsEc.exit:                   ; preds = %27, %29
  tail call fastcc void @_ZN12_GLOBAL__N_123MicrosoftCXXNameMangler26manglePointerExtQualifiersEN5clang10QualifiersENS1_8QualTypeE(ptr noundef nonnull align 8 dereferenceable(593) %0, i64 %2, i64 %.sroa.0.0.copyload.i)
  tail call fastcc void @_ZN12_GLOBAL__N_123MicrosoftCXXNameMangler10mangleTypeEN5clang8QualTypeENS1_11SourceRangeENS0_19QualifierMangleModeE(ptr noundef nonnull align 8 dereferenceable(593) %0, i64 %.sroa.0.0.copyload.i, i64 %3, i32 noundef 1)
  ret void
}